target datalayout = "e-m:e-p270:32:32-p271:32:32-p272:64:64-i64:64-i128:128-f80:128-n8:16:32:64-S128"
target triple = "x86_64-pc-linux-gnu"

%struct._object = type { %union.anon, ptr }
%union.anon = type { i64 }
%struct.group = type { ptr, ptr, i32, ptr }
%struct.anon = type { i32, i32 }
%struct._typeobject = type { %struct.PyVarObject, ptr, i64, i64, ptr, i64, ptr, ptr, ptr, ptr, ptr, ptr, ptr, ptr, ptr, ptr, ptr, ptr, ptr, i64, ptr, ptr, ptr, ptr, i64, ptr, ptr, ptr, ptr, ptr, ptr, ptr, ptr, ptr, i64, ptr, ptr, ptr, ptr, ptr, ptr, ptr, ptr, ptr, ptr, ptr, i32, ptr, ptr, i8, i16 }
%struct.PyVarObject = type { %struct._object, i64 }

@.str.2 = private unnamed_addr constant [9 x i8] c"getgrnam\00", align 1
@PyExc_KeyError = external global ptr, align 8
@.str.8 = private unnamed_addr constant [16 x i8] c"argument 'name'\00", align 1
@.str.9 = private unnamed_addr constant [4 x i8] c"str\00", align 1
@.str.10 = private unnamed_addr constant [31 x i8] c"getgrnam(): name not found: %R\00", align 1

; Function Attrs: alwaysinline nounwind uwtable
define internal i32 @_Py_IsImmortal(ptr noundef %0) #4 {
  %2 = alloca ptr, align 8
  store ptr %0, ptr %2, align 8, !tbaa !3
  %3 = load ptr, ptr %2, align 8, !tbaa !3
  %4 = getelementptr inbounds nuw %struct._object, ptr %3, i32 0, i32 0
  %5 = getelementptr inbounds nuw %struct.anon, ptr %4, i32 0, i32 0
  %6 = load i32, ptr %5, align 8, !tbaa !27
  %7 = icmp slt i32 %6, 0
  %8 = zext i1 %7 to i32
  ret i32 %8
}

; Function Attrs: alwaysinline nounwind uwtable
define internal void @Py_DECREF(ptr noundef %0) #4 {
  %2 = alloca ptr, align 8
  store ptr %0, ptr %2, align 8, !tbaa !3
  %3 = load ptr, ptr %2, align 8, !tbaa !3
  %4 = call i32 @_Py_IsImmortal(ptr noundef %3)
  %5 = icmp ne i32 %4, 0
  br i1 %5, label %6, label %7

6:                                                ; preds = %1
  br label %16

7:                                                ; preds = %1
  %8 = load ptr, ptr %2, align 8, !tbaa !3
  %9 = getelementptr inbounds nuw %struct._object, ptr %8, i32 0, i32 0
  %10 = getelementptr inbounds nuw %struct.anon, ptr %9, i32 0, i32 0
  %11 = load i32, ptr %10, align 8, !tbaa !27
  %12 = add i32 %11, -1
  store i32 %12, ptr %10, align 8, !tbaa !27
  %13 = icmp eq i32 %12, 0
  br i1 %13, label %14, label %16

14:                                               ; preds = %7
  %15 = load ptr, ptr %2, align 8, !tbaa !3
  call void @_Py_Dealloc(ptr noundef %15)
  br label %16

16:                                               ; preds = %6, %14, %7
  ret void
}

; Function Attrs: nounwind uwtable
define internal ptr @grp_getgrnam_impl(ptr noundef %0, ptr noundef %1) #0 {
  %3 = alloca ptr, align 8
  %4 = alloca ptr, align 8
  %5 = alloca ptr, align 8
  %6 = alloca ptr, align 8
  %7 = alloca ptr, align 8
  %8 = alloca ptr, align 8
  %9 = alloca i32, align 4
  %10 = alloca ptr, align 8
  %11 = alloca ptr, align 8
  %12 = alloca ptr, align 8
  %13 = alloca i32, align 4
  %14 = alloca i32, align 4
  %15 = alloca i64, align 8
  %16 = alloca %struct.group, align 8
  %17 = alloca ptr, align 8
  store ptr %0, ptr %4, align 8, !tbaa !3
  store ptr %1, ptr %5, align 8, !tbaa !3
  call void @llvm.lifetime.start.p0(i64 8, ptr %6) #7
  store ptr null, ptr %6, align 8, !tbaa !21
  call void @llvm.lifetime.start.p0(i64 8, ptr %7) #7
  store ptr null, ptr %7, align 8, !tbaa !21
  call void @llvm.lifetime.start.p0(i64 8, ptr %8) #7
  call void @llvm.lifetime.start.p0(i64 4, ptr %9) #7
  store i32 0, ptr %9, align 4, !tbaa !12
  call void @llvm.lifetime.start.p0(i64 8, ptr %10) #7
  call void @llvm.lifetime.start.p0(i64 8, ptr %11) #7
  call void @llvm.lifetime.start.p0(i64 8, ptr %12) #7
  store ptr null, ptr %12, align 8, !tbaa !3
  %18 = load ptr, ptr %5, align 8, !tbaa !3
  %19 = call ptr @PyUnicode_EncodeFSDefault(ptr noundef %18)
  store ptr %19, ptr %11, align 8, !tbaa !3
  %20 = icmp eq ptr %19, null
  br i1 %20, label %21, label %22

21:                                               ; preds = %2
  store ptr null, ptr %3, align 8
  store i32 1, ptr %13, align 4
  br label %87

22:                                               ; preds = %2
  %23 = load ptr, ptr %11, align 8, !tbaa !3
  %24 = call i32 @PyBytes_AsStringAndSize(ptr noundef %23, ptr noundef %8, ptr noundef null)
  %25 = icmp eq i32 %24, -1
  br i1 %25, label %26, label %27

26:                                               ; preds = %22
  br label %83

27:                                               ; preds = %22
  call void @llvm.lifetime.start.p0(i64 8, ptr %17) #7
  %28 = call ptr @PyEval_SaveThread()
  store ptr %28, ptr %17, align 8, !tbaa !23
  %29 = call i64 @sysconf(i32 noundef 69) #7
  store i64 %29, ptr %15, align 8, !tbaa !19
  %30 = load i64, ptr %15, align 8, !tbaa !19
  %31 = icmp eq i64 %30, -1
  br i1 %31, label %32, label %33

32:                                               ; preds = %27
  store i64 1024, ptr %15, align 8, !tbaa !19
  br label %33

33:                                               ; preds = %32, %27
  br label %34

34:                                               ; preds = %62, %33
  br label %35

35:                                               ; preds = %34
  %36 = load ptr, ptr %6, align 8, !tbaa !21
  %37 = load i64, ptr %15, align 8, !tbaa !19
  %38 = call ptr @PyMem_RawRealloc(ptr noundef %36, i64 noundef %37)
  store ptr %38, ptr %7, align 8, !tbaa !21
  %39 = load ptr, ptr %7, align 8, !tbaa !21
  %40 = icmp eq ptr %39, null
  br i1 %40, label %41, label %42

41:                                               ; preds = %35
  store ptr null, ptr %10, align 8, !tbaa !25
  store i32 1, ptr %9, align 4, !tbaa !12
  br label %65

42:                                               ; preds = %35
  %43 = load ptr, ptr %7, align 8, !tbaa !21
  store ptr %43, ptr %6, align 8, !tbaa !21
  %44 = load ptr, ptr %8, align 8, !tbaa !21
  %45 = load ptr, ptr %6, align 8, !tbaa !21
  %46 = load i64, ptr %15, align 8, !tbaa !19
  %47 = call i32 @getgrnam_r(ptr noundef %44, ptr noundef %16, ptr noundef %45, i64 noundef %46, ptr noundef %10)
  store i32 %47, ptr %14, align 4, !tbaa !12
  %48 = load i32, ptr %14, align 4, !tbaa !12
  %49 = icmp ne i32 %48, 0
  br i1 %49, label %50, label %51

50:                                               ; preds = %42
  store ptr null, ptr %10, align 8, !tbaa !25
  br label %51

51:                                               ; preds = %50, %42
  %52 = load ptr, ptr %10, align 8, !tbaa !25
  %53 = icmp ne ptr %52, null
  br i1 %53, label %57, label %54

54:                                               ; preds = %51
  %55 = load i32, ptr %14, align 4, !tbaa !12
  %56 = icmp ne i32 %55, 34
  br i1 %56, label %57, label %58

57:                                               ; preds = %54, %51
  br label %65

58:                                               ; preds = %54
  %59 = load i64, ptr %15, align 8, !tbaa !19
  %60 = icmp sgt i64 %59, 4611686018427387903
  br i1 %60, label %61, label %62

61:                                               ; preds = %58
  store i32 1, ptr %9, align 4, !tbaa !12
  br label %65

62:                                               ; preds = %58
  %63 = load i64, ptr %15, align 8, !tbaa !19
  %64 = shl i64 %63, 1
  store i64 %64, ptr %15, align 8, !tbaa !19
  br label %34

65:                                               ; preds = %61, %57, %41
  %66 = load ptr, ptr %17, align 8, !tbaa !23
  call void @PyEval_RestoreThread(ptr noundef %66)
  call void @llvm.lifetime.end.p0(i64 8, ptr %17) #7
  %67 = load ptr, ptr %10, align 8, !tbaa !25
  %68 = icmp eq ptr %67, null
  br i1 %68, label %69, label %79

69:                                               ; preds = %65
  %70 = load i32, ptr %9, align 4, !tbaa !12
  %71 = icmp eq i32 %70, 1
  br i1 %71, label %72, label %74

72:                                               ; preds = %69
  %73 = call ptr @PyErr_NoMemory()
  br label %78

74:                                               ; preds = %69
  %75 = load ptr, ptr @PyExc_KeyError, align 8, !tbaa !3
  %76 = load ptr, ptr %5, align 8, !tbaa !3
  %77 = call ptr (ptr, ptr, ...) @PyErr_Format(ptr noundef %75, ptr noundef @.str.10, ptr noundef %76)
  br label %78

78:                                               ; preds = %74, %72
  br label %83

79:                                               ; preds = %65
  %80 = load ptr, ptr %4, align 8, !tbaa !3
  %81 = load ptr, ptr %10, align 8, !tbaa !25
  %82 = call ptr @mkgrent(ptr noundef %80, ptr noundef %81)
  store ptr %82, ptr %12, align 8, !tbaa !3
  br label %83

83:                                               ; preds = %79, %78, %26
  %84 = load ptr, ptr %6, align 8, !tbaa !21
  call void @PyMem_RawFree(ptr noundef %84)
  %85 = load ptr, ptr %11, align 8, !tbaa !3
  call void @Py_DECREF(ptr noundef %85)
  %86 = load ptr, ptr %12, align 8, !tbaa !3
  store ptr %86, ptr %3, align 8
  store i32 1, ptr %13, align 4
  br label %87

87:                                               ; preds = %83, %21
  call void @llvm.lifetime.end.p0(i64 8, ptr %12) #7
  call void @llvm.lifetime.end.p0(i64 8, ptr %11) #7
  call void @llvm.lifetime.end.p0(i64 8, ptr %10) #7
  call void @llvm.lifetime.end.p0(i64 4, ptr %9) #7
  call void @llvm.lifetime.end.p0(i64 8, ptr %8) #7
  call void @llvm.lifetime.end.p0(i64 8, ptr %7) #7
  call void @llvm.lifetime.end.p0(i64 8, ptr %6) #7
  %88 = load ptr, ptr %3, align 8
  ret ptr %88
}

; Function Attrs: inlinehint nounwind uwtable
define internal i32 @PyType_HasFeature(ptr noundef %0, i64 noundef %1) #5 {
  %3 = alloca ptr, align 8
  %4 = alloca i64, align 8
  %5 = alloca i64, align 8
  store ptr %0, ptr %3, align 8, !tbaa !16
  store i64 %1, ptr %4, align 8, !tbaa !19
  call void @llvm.lifetime.start.p0(i64 8, ptr %5) #7
  %6 = load ptr, ptr %3, align 8, !tbaa !16
  %7 = getelementptr inbounds nuw %struct._typeobject, ptr %6, i32 0, i32 19
  %8 = load i64, ptr %7, align 8, !tbaa !35
  store i64 %8, ptr %5, align 8, !tbaa !19
  %9 = load i64, ptr %5, align 8, !tbaa !19
  %10 = load i64, ptr %4, align 8, !tbaa !19
  %11 = and i64 %9, %10
  %12 = icmp ne i64 %11, 0
  %13 = zext i1 %12 to i32
  call void @llvm.lifetime.end.p0(i64 8, ptr %5) #7
  ret i32 %13
}

; Function Attrs: inlinehint nounwind uwtable
define internal ptr @_Py_TYPE(ptr noundef %0) #5 {
  %2 = alloca ptr, align 8
  store ptr %0, ptr %2, align 8, !tbaa !3
  %3 = load ptr, ptr %2, align 8, !tbaa !3
  %4 = getelementptr inbounds nuw %struct._object, ptr %3, i32 0, i32 1
  %5 = load ptr, ptr %4, align 8, !tbaa !43
  ret ptr %5
}

; Function Attrs: nounwind uwtable
define internal ptr @grp_getgrnam(ptr noundef %0, ptr noundef %1, i64 noundef %2, ptr noundef %3) #0 {
  %5 = alloca ptr, align 8
  %6 = alloca ptr, align 8
  %7 = alloca i64, align 8
  %8 = alloca ptr, align 8
  %9 = alloca ptr, align 8
  %10 = alloca [1 x ptr], align 8
  %11 = alloca ptr, align 8
  store ptr %0, ptr %5, align 8, !tbaa !3
  store ptr %1, ptr %6, align 8, !tbaa !17
  store i64 %2, ptr %7, align 8, !tbaa !19
  store ptr %3, ptr %8, align 8, !tbaa !3
  call void @llvm.lifetime.start.p0(i64 8, ptr %9) #7
  store ptr null, ptr %9, align 8, !tbaa !3
  call void @llvm.lifetime.start.p0(i64 8, ptr %10) #7
  call void @llvm.lifetime.start.p0(i64 8, ptr %11) #7
  %12 = load ptr, ptr %8, align 8, !tbaa !3
  %13 = icmp eq ptr %12, null
  br i1 %13, label %14, label %25

14:                                               ; preds = %4
  %15 = load i64, ptr %7, align 8, !tbaa !19
  %16 = icmp sle i64 1, %15
  br i1 %16, label %17, label %25

17:                                               ; preds = %14
  %18 = load i64, ptr %7, align 8, !tbaa !19
  %19 = icmp sle i64 %18, 1
  br i1 %19, label %20, label %25

20:                                               ; preds = %17
  %21 = load ptr, ptr %6, align 8, !tbaa !17
  %22 = icmp ne ptr %21, null
  br i1 %22, label %23, label %25

23:                                               ; preds = %20
  %24 = load ptr, ptr %6, align 8, !tbaa !17
  br label %31

25:                                               ; preds = %20, %17, %14, %4
  %26 = load ptr, ptr %6, align 8, !tbaa !17
  %27 = load i64, ptr %7, align 8, !tbaa !19
  %28 = load ptr, ptr %8, align 8, !tbaa !3
  %29 = getelementptr inbounds [1 x ptr], ptr %10, i64 0, i64 0
  %30 = call ptr @_PyArg_UnpackKeywords(ptr noundef %26, i64 noundef %27, ptr noundef null, ptr noundef %28, ptr noundef @grp_getgrnam._parser, i32 noundef 1, i32 noundef 1, i32 noundef 0, i32 noundef 0, ptr noundef %29)
  br label %31

31:                                               ; preds = %25, %23
  %32 = phi ptr [ %24, %23 ], [ %30, %25 ]
  store ptr %32, ptr %6, align 8, !tbaa !17
  %33 = load ptr, ptr %6, align 8, !tbaa !17
  %34 = icmp ne ptr %33, null
  br i1 %34, label %36, label %35

35:                                               ; preds = %31
  br label %54

36:                                               ; preds = %31
  %37 = load ptr, ptr %6, align 8, !tbaa !17
  %38 = getelementptr ptr, ptr %37, i64 0
  %39 = load ptr, ptr %38, align 8, !tbaa !3
  %40 = call ptr @_Py_TYPE(ptr noundef %39)
  %41 = call i32 @PyType_HasFeature(ptr noundef %40, i64 noundef 268435456)
  %42 = icmp ne i32 %41, 0
  br i1 %42, label %47, label %43

43:                                               ; preds = %36
  %44 = load ptr, ptr %6, align 8, !tbaa !17
  %45 = getelementptr ptr, ptr %44, i64 0
  %46 = load ptr, ptr %45, align 8, !tbaa !3
  call void @_PyArg_BadArgument(ptr noundef @.str.2, ptr noundef @.str.8, ptr noundef @.str.9, ptr noundef %46)
  br label %54

47:                                               ; preds = %36
  %48 = load ptr, ptr %6, align 8, !tbaa !17
  %49 = getelementptr ptr, ptr %48, i64 0
  %50 = load ptr, ptr %49, align 8, !tbaa !3
  store ptr %50, ptr %11, align 8, !tbaa !3
  %51 = load ptr, ptr %5, align 8, !tbaa !3
  %52 = load ptr, ptr %11, align 8, !tbaa !3
  %53 = call ptr @grp_getgrnam_impl(ptr noundef %51, ptr noundef %52)
  store ptr %53, ptr %9, align 8, !tbaa !3
  br label %54

54:                                               ; preds = %47, %43, %35
  %55 = load ptr, ptr %9, align 8, !tbaa !3
  call void @llvm.lifetime.end.p0(i64 8, ptr %11) #7
  call void @llvm.lifetime.end.p0(i64 8, ptr %10) #7
  call void @llvm.lifetime.end.p0(i64 8, ptr %9) #7
  ret ptr %55
}