; Function Attrs: nounwind uwtable
define internal ptr @grp_getgrnam(ptr noundef %0, ptr noundef %1, i64 noundef %2, ptr noundef %3) #0 {
  %5 = alloca ptr, align 8
  %6 = alloca ptr, align 8
  %7 = alloca %struct.group, align 8
  %8 = alloca [1 x ptr], align 8
  call void @llvm.lifetime.start.p0(i64 8, ptr nonnull %8) #4
  %9 = icmp eq ptr %3, null
  %10 = icmp eq i64 %2, 1
  %or.cond3 = and i1 %10, %9
  %11 = icmp ne ptr %1, null
  %or.cond5 = and i1 %11, %or.cond3
  br i1 %or.cond5, label %.thread, label %12

12:                                               ; preds = %4
  %13 = call ptr @_PyArg_UnpackKeywords(ptr noundef %1, i64 noundef %2, ptr noundef null, ptr noundef %3, ptr noundef nonnull @grp_getgrnam._parser, i32 noundef 1, i32 noundef 1, i32 noundef 0, i32 noundef 0, ptr noundef nonnull %8) #4
  %.not = icmp eq ptr %13, null
  br i1 %.not, label %59, label %.thread

.thread:                                          ; preds = %4, %12
  %14 = phi ptr [ %13, %12 ], [ %1, %4 ]
  %15 = load ptr, ptr %14, align 8, !tbaa !11
  %16 = getelementptr i8, ptr %15, i64 8
  %.val = load ptr, ptr %16, align 8, !tbaa !17
  %17 = getelementptr i8, ptr %.val, i64 168
  %.val22 = load i64, ptr %17, align 8, !tbaa !19
  %18 = and i64 %.val22, 268435456
  %.not21 = icmp eq i64 %18, 0
  br i1 %.not21, label %19, label %20

19:                                               ; preds = %.thread
  call void @_PyArg_BadArgument(ptr noundef nonnull @.str.2, ptr noundef nonnull @.str.8, ptr noundef nonnull @.str.9, ptr noundef nonnull %15) #4
  br label %59

20:                                               ; preds = %.thread
  call void @llvm.lifetime.start.p0(i64 32, ptr nonnull %7)
  call void @llvm.lifetime.start.p0(i64 8, ptr nonnull %5) #4
  call void @llvm.lifetime.start.p0(i64 8, ptr nonnull %6) #4
  %21 = call ptr @PyUnicode_EncodeFSDefault(ptr noundef nonnull %15) #4
  %22 = icmp eq ptr %21, null
  br i1 %22, label %grp_getgrnam_impl.exit, label %23

23:                                               ; preds = %20
  %24 = call i32 @PyBytes_AsStringAndSize(ptr noundef nonnull %21, ptr noundef nonnull %5, ptr noundef null) #4
  %25 = icmp eq i32 %24, -1
  br i1 %25, label %53, label %26

26:                                               ; preds = %23
  %27 = call ptr @PyEval_SaveThread() #4
  %28 = call i64 @sysconf(i32 noundef 69) #4
  %29 = icmp eq i64 %28, -1
  %spec.store.select.i = select i1 %29, i64 1024, i64 %28
  %30 = call ptr @PyMem_RawRealloc(ptr noundef null, i64 noundef %spec.store.select.i) #4
  %31 = icmp eq ptr %30, null
  br i1 %31, label %._crit_edge.i, label %.lr.ph.i

32:                                               ; preds = %40
  %33 = shl i64 %.02132.i, 1
  %34 = call ptr @PyMem_RawRealloc(ptr noundef nonnull %36, i64 noundef %33) #4
  %35 = icmp eq ptr %34, null
  br i1 %35, label %._crit_edge.i, label %.lr.ph.i

._crit_edge.i:                                    ; preds = %32, %26
  %.1.lcssa.i = phi ptr [ null, %26 ], [ %36, %32 ]
  store ptr null, ptr %6, align 8, !tbaa !13
  br label %.thread.i

.lr.ph.i:                                         ; preds = %26, %32
  %36 = phi ptr [ %34, %32 ], [ %30, %26 ]
  %.02132.i = phi i64 [ %33, %32 ], [ %spec.store.select.i, %26 ]
  %37 = load ptr, ptr %5, align 8, !tbaa !28
  %38 = call i32 @getgrnam_r(ptr noundef %37, ptr noundef nonnull %7, ptr noundef nonnull %36, i64 noundef %.02132.i, ptr noundef nonnull %6) #4
  %.not.i = icmp eq i32 %38, 0
  br i1 %.not.i, label %.thread.i, label %39

39:                                               ; preds = %.lr.ph.i
  store ptr null, ptr %6, align 8, !tbaa !13
  %.not29.i = icmp eq i32 %38, 34
  br i1 %.not29.i, label %40, label %.thread.i

40:                                               ; preds = %39
  %41 = icmp sgt i64 %.02132.i, 4611686018427387903
  br i1 %41, label %.thread.i, label %32

.thread.i:                                        ; preds = %40, %39, %.lr.ph.i, %._crit_edge.i
  %42 = phi i1 [ true, %._crit_edge.i ], [ false, %39 ], [ true, %40 ], [ false, %.lr.ph.i ]
  %.2.i = phi ptr [ %.1.lcssa.i, %._crit_edge.i ], [ %36, %.lr.ph.i ], [ %36, %39 ], [ %36, %40 ]
  call void @PyEval_RestoreThread(ptr noundef %27) #4
  %43 = load ptr, ptr %6, align 8, !tbaa !13
  %44 = icmp eq ptr %43, null
  br i1 %44, label %45, label %51

45:                                               ; preds = %.thread.i
  br i1 %42, label %46, label %48

46:                                               ; preds = %45
  %47 = call ptr @PyErr_NoMemory() #4
  br label %53

48:                                               ; preds = %45
  %49 = load ptr, ptr @PyExc_KeyError, align 8, !tbaa !11
  %50 = call ptr (ptr, ptr, ...) @PyErr_Format(ptr noundef %49, ptr noundef nonnull @.str.10, ptr noundef nonnull %15) #4
  br label %53

51:                                               ; preds = %.thread.i
  %52 = call fastcc ptr @mkgrent(ptr noundef %0, ptr noundef %43)
  br label %53

53:                                               ; preds = %51, %48, %46, %23
  %.023.i = phi ptr [ null, %23 ], [ null, %46 ], [ null, %48 ], [ %52, %51 ]
  %.022.i = phi ptr [ null, %23 ], [ %.2.i, %46 ], [ %.2.i, %48 ], [ %.2.i, %51 ]
  call void @PyMem_RawFree(ptr noundef %.022.i) #4
  %54 = load i32, ptr %21, align 8, !tbaa !10
  %.not.i.i = icmp sgt i32 %54, -1
  br i1 %.not.i.i, label %55, label %grp_getgrnam_impl.exit

55:                                               ; preds = %53
  %56 = add nsw i32 %54, -1
  store i32 %56, ptr %21, align 8, !tbaa !10
  %57 = icmp eq i32 %56, 0
  br i1 %57, label %58, label %grp_getgrnam_impl.exit

58:                                               ; preds = %55
  call void @_Py_Dealloc(ptr noundef nonnull %21) #4
  br label %grp_getgrnam_impl.exit

grp_getgrnam_impl.exit:                           ; preds = %20, %53, %55, %58
  %.0.i = phi ptr [ null, %20 ], [ %.023.i, %53 ], [ %.023.i, %55 ], [ %.023.i, %58 ]
  call void @llvm.lifetime.end.p0(i64 8, ptr nonnull %6) #4
  call void @llvm.lifetime.end.p0(i64 8, ptr nonnull %5) #4
  call void @llvm.lifetime.end.p0(i64 32, ptr nonnull %7)
  br label %59

59:                                               ; preds = %12, %grp_getgrnam_impl.exit, %19
  %.0 = phi ptr [ %.0.i, %grp_getgrnam_impl.exit ], [ null, %19 ], [ null, %12 ]
  call void @llvm.lifetime.end.p0(i64 8, ptr nonnull %8) #4
  ret ptr %.0
}